target datalayout = "e-m:e-p270:32:32-p271:32:32-p272:64:64-i64:64-i128:128-f80:128-n8:16:32:64-S128"
target triple = "x86_64-unknown-linux-gnu"

%"class.icu_75::SelectFormat" = type { %"class.icu_75::Format.base", [6 x i8], %"class.icu_75::MessagePattern" }
%"class.icu_75::Format.base" = type <{ %"class.icu_75::UObject", [157 x i8], [157 x i8] }>
%"class.icu_75::UObject" = type { ptr }
%"class.icu_75::MessagePattern" = type <{ %"class.icu_75::UObject", i32, [4 x i8], %"class.icu_75::UnicodeString", ptr, ptr, i32, [4 x i8], ptr, ptr, i32, i8, i8, i8, i8 }>
%"class.icu_75::UnicodeString" = type { %"class.icu_75::Replaceable", %"union.icu_75::UnicodeString::StackBufferOrFields" }
%"class.icu_75::Replaceable" = type { %"class.icu_75::UObject" }
%"union.icu_75::UnicodeString::StackBufferOrFields" = type { %struct.anon.0, [32 x i8] }
%struct.anon.0 = type { i16, i32, i32, ptr }

; Function Attrs: mustprogress uwtable
define noundef nonnull align 8 dereferenceable(456) ptr @_ZN6icu_7512SelectFormataSERKS0_(ptr noundef nonnull align 8 dereferenceable(456) %this, ptr noundef nonnull align 8 dereferenceable(456) %other) #1 align 2 {
entry:
  %this.addr = alloca ptr, align 8
  %other.addr = alloca ptr, align 8
  store ptr %this, ptr %this.addr, align 8
  store ptr %other, ptr %other.addr, align 8
  %this1 = load ptr, ptr %this.addr, align 8
  %0 = load ptr, ptr %other.addr, align 8
  %cmp = icmp ne ptr %this1, %0
  br i1 %cmp, label %if.then, label %if.end

if.then:                                          ; preds = %entry
  %1 = load ptr, ptr %other.addr, align 8
  %msgPattern = getelementptr inbounds %"class.icu_75::SelectFormat", ptr %1, i32 0, i32 2
  %msgPattern2 = getelementptr inbounds %"class.icu_75::SelectFormat", ptr %this1, i32 0, i32 2
  %call = call noundef nonnull align 8 dereferenceable(127) ptr @_ZN6icu_7514MessagePatternaSERKS0_(ptr noundef nonnull align 8 dereferenceable(127) %msgPattern2, ptr noundef nonnull align 8 dereferenceable(127) %msgPattern)
  br label %if.end

if.end:                                           ; preds = %if.then, %entry
  ret ptr %this1
}