; Function Attrs: mustprogress uwtable
define noundef nonnull align 8 dereferenceable(456) ptr @_ZN6icu_7512SelectFormataSERKS0_(ptr noundef nonnull returned align 8 dereferenceable(456) %this, ptr noundef nonnull align 8 dereferenceable(456) %other) local_unnamed_addr #1 align 2 {
entry:
  %cmp.not = icmp eq ptr %this, %other
  br i1 %cmp.not, label %if.end, label %if.then

if.then:                                          ; preds = %entry
  %msgPattern = getelementptr inbounds i8, ptr %other, i64 328
  %msgPattern2 = getelementptr inbounds i8, ptr %this, i64 328
  %call = tail call noundef nonnull align 8 dereferenceable(127) ptr @_ZN6icu_7514MessagePatternaSERKS0_(ptr noundef nonnull align 8 dereferenceable(127) %msgPattern2, ptr noundef nonnull align 8 dereferenceable(127) %msgPattern)
  br label %if.end

if.end:                                           ; preds = %if.then, %entry
  ret ptr %this
}